target datalayout = "e-m:e-p270:32:32-p271:32:32-p272:64:64-i64:64-i128:128-f80:128-n8:16:32:64-S128"
target triple = "x86_64-pc-linux-gnu"

%struct.ShowCQTContext = type { ptr, ptr, ptr, ptr, i32, i32, i32, i32, %struct.AVRational, i32, i32, i32, i64, ptr, ptr, ptr, ptr, ptr, ptr, ptr, ptr, ptr, i32, i32, i32, i32, ptr, ptr, ptr, ptr, ptr, [3 x [3 x float]], [6 x float], ptr, ptr, ptr, ptr, ptr, ptr, i64, i64, i64, i64, i64, i64, i64, i64, i32, i32, %struct.AVRational, i32, i32, i32, i32, ptr, ptr, float, float, float, double, double, double, double, float, ptr, i32, i32, ptr, ptr, ptr, ptr, i32, i32, ptr }
%struct.AVRational = type { i32, i32 }

@.str.114 = private unnamed_addr constant [52 x i8] c"unsupported colorspace, setting it to unspecified.\0A\00", align 1

; Function Attrs: nounwind uwtable
define internal void @init_colormatrix(ptr noundef %0) #1 {
  %2 = alloca ptr, align 8
  %3 = alloca double, align 8
  %4 = alloca double, align 8
  %5 = alloca double, align 8
  store ptr %0, ptr %2, align 8, !tbaa !22
  call void @llvm.lifetime.start.p0(i64 8, ptr %3) #12
  call void @llvm.lifetime.start.p0(i64 8, ptr %4) #12
  call void @llvm.lifetime.start.p0(i64 8, ptr %5) #12
  %6 = load ptr, ptr %2, align 8, !tbaa !22
  %7 = getelementptr inbounds nuw %struct.ShowCQTContext, ptr %6, i32 0, i32 72
  %8 = load i32, ptr %7, align 4, !tbaa !194
  switch i32 %8, label %9 [
    i32 2, label %15
    i32 5, label %15
    i32 6, label %15
    i32 1, label %16
    i32 4, label %17
    i32 7, label %18
    i32 9, label %19
  ]

9:                                                ; preds = %1
  %10 = load ptr, ptr %2, align 8, !tbaa !22
  %11 = getelementptr inbounds nuw %struct.ShowCQTContext, ptr %10, i32 0, i32 1
  %12 = load ptr, ptr %11, align 8, !tbaa !24
  call void (ptr, i32, ptr, ...) @av_log(ptr noundef %12, i32 noundef 24, ptr noundef @.str.114)
  %13 = load ptr, ptr %2, align 8, !tbaa !22
  %14 = getelementptr inbounds nuw %struct.ShowCQTContext, ptr %13, i32 0, i32 72
  store i32 2, ptr %14, align 4, !tbaa !194
  br label %15

15:                                               ; preds = %1, %1, %1, %9
  store double 2.990000e-01, ptr %3, align 8, !tbaa !94
  store double 1.140000e-01, ptr %5, align 8, !tbaa !94
  br label %20

16:                                               ; preds = %1
  store double 2.126000e-01, ptr %3, align 8, !tbaa !94
  store double 7.220000e-02, ptr %5, align 8, !tbaa !94
  br label %20

17:                                               ; preds = %1
  store double 3.000000e-01, ptr %3, align 8, !tbaa !94
  store double 1.100000e-01, ptr %5, align 8, !tbaa !94
  br label %20

18:                                               ; preds = %1
  store double 2.120000e-01, ptr %3, align 8, !tbaa !94
  store double 0x3FB645A1CAC08312, ptr %5, align 8, !tbaa !94
  br label %20

19:                                               ; preds = %1
  store double 2.627000e-01, ptr %3, align 8, !tbaa !94
  store double 5.930000e-02, ptr %5, align 8, !tbaa !94
  br label %20

20:                                               ; preds = %19, %18, %17, %16, %15
  %21 = load double, ptr %3, align 8, !tbaa !94
  %22 = fsub nsz double 1.000000e+00, %21
  %23 = load double, ptr %5, align 8, !tbaa !94
  %24 = fsub nsz double %22, %23
  store double %24, ptr %4, align 8, !tbaa !94
  %25 = load double, ptr %3, align 8, !tbaa !94
  %26 = fmul nsz double 2.190000e+02, %25
  %27 = fptrunc nsz double %26 to float
  %28 = load ptr, ptr %2, align 8, !tbaa !22
  %29 = getelementptr inbounds nuw %struct.ShowCQTContext, ptr %28, i32 0, i32 31
  %30 = getelementptr inbounds [3 x [3 x float]], ptr %29, i64 0, i64 0
  %31 = getelementptr inbounds [3 x float], ptr %30, i64 0, i64 0
  store float %27, ptr %31, align 8, !tbaa !70
  %32 = load double, ptr %4, align 8, !tbaa !94
  %33 = fmul nsz double 2.190000e+02, %32
  %34 = fptrunc nsz double %33 to float
  %35 = load ptr, ptr %2, align 8, !tbaa !22
  %36 = getelementptr inbounds nuw %struct.ShowCQTContext, ptr %35, i32 0, i32 31
  %37 = getelementptr inbounds [3 x [3 x float]], ptr %36, i64 0, i64 0
  %38 = getelementptr inbounds [3 x float], ptr %37, i64 0, i64 1
  store float %34, ptr %38, align 4, !tbaa !70
  %39 = load double, ptr %5, align 8, !tbaa !94
  %40 = fmul nsz double 2.190000e+02, %39
  %41 = fptrunc nsz double %40 to float
  %42 = load ptr, ptr %2, align 8, !tbaa !22
  %43 = getelementptr inbounds nuw %struct.ShowCQTContext, ptr %42, i32 0, i32 31
  %44 = getelementptr inbounds [3 x [3 x float]], ptr %43, i64 0, i64 0
  %45 = getelementptr inbounds [3 x float], ptr %44, i64 0, i64 2
  store float %41, ptr %45, align 8, !tbaa !70
  %46 = load double, ptr %3, align 8, !tbaa !94
  %47 = fmul nsz double -1.120000e+02, %46
  %48 = load double, ptr %5, align 8, !tbaa !94
  %49 = fsub nsz double 1.000000e+00, %48
  %50 = fdiv nsz double %47, %49
  %51 = fptrunc nsz double %50 to float
  %52 = load ptr, ptr %2, align 8, !tbaa !22
  %53 = getelementptr inbounds nuw %struct.ShowCQTContext, ptr %52, i32 0, i32 31
  %54 = getelementptr inbounds [3 x [3 x float]], ptr %53, i64 0, i64 1
  %55 = getelementptr inbounds [3 x float], ptr %54, i64 0, i64 0
  store float %51, ptr %55, align 4, !tbaa !70
  %56 = load double, ptr %4, align 8, !tbaa !94
  %57 = fmul nsz double -1.120000e+02, %56
  %58 = load double, ptr %5, align 8, !tbaa !94
  %59 = fsub nsz double 1.000000e+00, %58
  %60 = fdiv nsz double %57, %59
  %61 = fptrunc nsz double %60 to float
  %62 = load ptr, ptr %2, align 8, !tbaa !22
  %63 = getelementptr inbounds nuw %struct.ShowCQTContext, ptr %62, i32 0, i32 31
  %64 = getelementptr inbounds [3 x [3 x float]], ptr %63, i64 0, i64 1
  %65 = getelementptr inbounds [3 x float], ptr %64, i64 0, i64 1
  store float %61, ptr %65, align 4, !tbaa !70
  %66 = load ptr, ptr %2, align 8, !tbaa !22
  %67 = getelementptr inbounds nuw %struct.ShowCQTContext, ptr %66, i32 0, i32 31
  %68 = getelementptr inbounds [3 x [3 x float]], ptr %67, i64 0, i64 1
  %69 = getelementptr inbounds [3 x float], ptr %68, i64 0, i64 2
  store float 1.120000e+02, ptr %69, align 4, !tbaa !70
  %70 = load ptr, ptr %2, align 8, !tbaa !22
  %71 = getelementptr inbounds nuw %struct.ShowCQTContext, ptr %70, i32 0, i32 31
  %72 = getelementptr inbounds [3 x [3 x float]], ptr %71, i64 0, i64 2
  %73 = getelementptr inbounds [3 x float], ptr %72, i64 0, i64 0
  store float 1.120000e+02, ptr %73, align 8, !tbaa !70
  %74 = load double, ptr %4, align 8, !tbaa !94
  %75 = fmul nsz double -1.120000e+02, %74
  %76 = load double, ptr %3, align 8, !tbaa !94
  %77 = fsub nsz double 1.000000e+00, %76
  %78 = fdiv nsz double %75, %77
  %79 = fptrunc nsz double %78 to float
  %80 = load ptr, ptr %2, align 8, !tbaa !22
  %81 = getelementptr inbounds nuw %struct.ShowCQTContext, ptr %80, i32 0, i32 31
  %82 = getelementptr inbounds [3 x [3 x float]], ptr %81, i64 0, i64 2
  %83 = getelementptr inbounds [3 x float], ptr %82, i64 0, i64 1
  store float %79, ptr %83, align 4, !tbaa !70
  %84 = load double, ptr %5, align 8, !tbaa !94
  %85 = fmul nsz double -1.120000e+02, %84
  %86 = load double, ptr %3, align 8, !tbaa !94
  %87 = fsub nsz double 1.000000e+00, %86
  %88 = fdiv nsz double %85, %87
  %89 = fptrunc nsz double %88 to float
  %90 = load ptr, ptr %2, align 8, !tbaa !22
  %91 = getelementptr inbounds nuw %struct.ShowCQTContext, ptr %90, i32 0, i32 31
  %92 = getelementptr inbounds [3 x [3 x float]], ptr %91, i64 0, i64 2
  %93 = getelementptr inbounds [3 x float], ptr %92, i64 0, i64 2
  store float %89, ptr %93, align 8, !tbaa !70
  call void @llvm.lifetime.end.p0(i64 8, ptr %5) #12
  call void @llvm.lifetime.end.p0(i64 8, ptr %4) #12
  call void @llvm.lifetime.end.p0(i64 8, ptr %3) #12
  ret void
}