; Function Attrs: nounwind uwtable
define internal fastcc void @init_colormatrix(ptr noundef captures(none) initializes((208, 244)) %0) unnamed_addr #1 {
  %2 = getelementptr inbounds nuw i8, ptr %0, i64 540
  %3 = load i32, ptr %2, align 4, !tbaa !178
  %switch.tableidx = add i32 %3, -1
  %4 = icmp ult i32 %switch.tableidx, 9
  %switch.maskindex = trunc i32 %switch.tableidx to i16
  %switch.shifted = lshr i16 379, %switch.maskindex
  %switch.lobit = trunc i16 %switch.shifted to i1
  %or.cond = select i1 %4, i1 %switch.lobit, i1 false
  br i1 %or.cond, label %switch.lookup, label %5

5:                                                ; preds = %1
  %6 = getelementptr inbounds nuw i8, ptr %0, i64 8
  %7 = load ptr, ptr %6, align 8, !tbaa !20
  tail call void (ptr, i32, ptr, ...) @av_log(ptr noundef %7, i32 noundef 24, ptr noundef nonnull @.str.114) #15
  store i32 2, ptr %2, align 4, !tbaa !178
  br label %10

switch.lookup:                                    ; preds = %1
  %8 = zext nneg i32 %switch.tableidx to i64
  %switch.gep = getelementptr inbounds nuw [9 x double], ptr @switch.table.init_colormatrix, i64 0, i64 %8
  %switch.load = load double, ptr %switch.gep, align 8
  %9 = zext nneg i32 %switch.tableidx to i64
  %switch.gep26 = getelementptr inbounds nuw [9 x double], ptr @switch.table.init_colormatrix.8, i64 0, i64 %9
  %switch.load27 = load double, ptr %switch.gep26, align 8
  br label %10

10:                                               ; preds = %switch.lookup, %5
  %.025 = phi nsz double [ 2.990000e-01, %5 ], [ %switch.load, %switch.lookup ]
  %.0 = phi nsz double [ 1.140000e-01, %5 ], [ %switch.load27, %switch.lookup ]
  %11 = fsub nsz double 1.000000e+00, %.025
  %12 = fsub nsz double %11, %.0
  %13 = fmul nsz double %.025, 2.190000e+02
  %14 = fptrunc nsz double %13 to float
  %15 = getelementptr inbounds nuw i8, ptr %0, i64 208
  store float %14, ptr %15, align 8, !tbaa !61
  %16 = fmul nsz double %12, 2.190000e+02
  %17 = fptrunc nsz double %16 to float
  %18 = getelementptr inbounds nuw i8, ptr %0, i64 212
  store float %17, ptr %18, align 4, !tbaa !61
  %19 = fmul nsz double %.0, 2.190000e+02
  %20 = fptrunc nsz double %19 to float
  %21 = getelementptr inbounds nuw i8, ptr %0, i64 216
  store float %20, ptr %21, align 8, !tbaa !61
  %22 = fmul nsz double %.025, -1.120000e+02
  %23 = fsub nsz double 1.000000e+00, %.0
  %24 = fdiv nsz double %22, %23
  %25 = fptrunc nsz double %24 to float
  %26 = getelementptr inbounds nuw i8, ptr %0, i64 220
  store float %25, ptr %26, align 4, !tbaa !61
  %27 = fmul nsz double %12, -1.120000e+02
  %28 = fdiv nsz double %27, %23
  %29 = fptrunc nsz double %28 to float
  %30 = getelementptr inbounds nuw i8, ptr %0, i64 224
  store float %29, ptr %30, align 4, !tbaa !61
  %31 = getelementptr inbounds nuw i8, ptr %0, i64 228
  store float 1.120000e+02, ptr %31, align 4, !tbaa !61
  %32 = getelementptr inbounds nuw i8, ptr %0, i64 232
  store float 1.120000e+02, ptr %32, align 8, !tbaa !61
  %33 = fdiv nsz double %27, %11
  %34 = fptrunc nsz double %33 to float
  %35 = getelementptr inbounds nuw i8, ptr %0, i64 236
  store float %34, ptr %35, align 4, !tbaa !61
  %36 = fmul nsz double %.0, -1.120000e+02
  %37 = fdiv nsz double %36, %11
  %38 = fptrunc nsz double %37 to float
  %39 = getelementptr inbounds nuw i8, ptr %0, i64 240
  store float %38, ptr %39, align 8, !tbaa !61
  ret void
}